target datalayout = "e-m:e-p270:32:32-p271:32:32-p272:64:64-i64:64-i128:128-f80:128-n8:16:32:64-S128"
target triple = "x86_64-unknown-linux-gnu"

%struct.CPUClass = type { %struct.DeviceClass, ptr, ptr, ptr, ptr, ptr, ptr, ptr, ptr, ptr, ptr, ptr, ptr, ptr, ptr, ptr, ptr, ptr, ptr, ptr, ptr, ptr, i32, i32, i8 }
%struct.DeviceClass = type { %struct.ObjectClass, [1 x i64], ptr, ptr, ptr, i8, i8, ptr, ptr, ptr, ptr, ptr }
%struct.ObjectClass = type { ptr, ptr, [4 x ptr], [4 x ptr], ptr, ptr }
%struct.SysemuCPUOps = type { ptr, ptr, ptr, ptr, ptr, ptr, ptr, ptr, ptr, ptr, ptr, ptr }

@.str.3 = private unnamed_addr constant [4 x i8] c"cpu\00", align 1
@.str.4 = private unnamed_addr constant [100 x i8] c"/home/dtcxzyw/WorkSpace/Projects/compilers/llvm-opt-benchmark/bench/qemu/qemu/include/hw/core/cpu.h\00", align 1
@__func__.CPU_GET_CLASS = private unnamed_addr constant [14 x i8] c"CPU_GET_CLASS\00", align 1

; Function Attrs: nounwind sspstrong uwtable
define internal ptr @CPU_GET_CLASS(ptr noundef %obj) #0 {
entry:
  %obj.addr = alloca ptr, align 8
  store ptr %obj, ptr %obj.addr, align 8
  %0 = load ptr, ptr %obj.addr, align 8
  %call = call ptr @object_get_class(ptr noundef %0)
  %call1 = call ptr @object_class_dynamic_cast_assert(ptr noundef %call, ptr noundef @.str.3, ptr noundef @.str.4, i32 noundef 64, ptr noundef @__func__.CPU_GET_CLASS)
  ret ptr %call1
}

; Function Attrs: nounwind sspstrong uwtable
define dso_local i32 @cpu_write_elf32_note(ptr noundef %f, ptr noundef %cpu, i32 noundef %cpuid, ptr noundef %opaque) #0 {
entry:
  %retval = alloca i32, align 4
  %f.addr = alloca ptr, align 8
  %cpu.addr = alloca ptr, align 8
  %cpuid.addr = alloca i32, align 4
  %opaque.addr = alloca ptr, align 8
  %cc = alloca ptr, align 8
  store ptr %f, ptr %f.addr, align 8
  store ptr %cpu, ptr %cpu.addr, align 8
  store i32 %cpuid, ptr %cpuid.addr, align 4
  store ptr %opaque, ptr %opaque.addr, align 8
  %0 = load ptr, ptr %cpu.addr, align 8
  %call = call ptr @CPU_GET_CLASS(ptr noundef %0)
  store ptr %call, ptr %cc, align 8
  %1 = load ptr, ptr %cc, align 8
  %sysemu_ops = getelementptr inbounds %struct.CPUClass, ptr %1, i32 0, i32 19
  %2 = load ptr, ptr %sysemu_ops, align 8
  %write_elf32_note = getelementptr inbounds %struct.SysemuCPUOps, ptr %2, i32 0, i32 6
  %3 = load ptr, ptr %write_elf32_note, align 8
  %tobool = icmp ne ptr %3, null
  br i1 %tobool, label %if.end, label %if.then

if.then:                                          ; preds = %entry
  store i32 -1, ptr %retval, align 4
  br label %return

if.end:                                           ; preds = %entry
  %4 = load ptr, ptr %cc, align 8
  %sysemu_ops1 = getelementptr inbounds %struct.CPUClass, ptr %4, i32 0, i32 19
  %5 = load ptr, ptr %sysemu_ops1, align 8
  %write_elf32_note2 = getelementptr inbounds %struct.SysemuCPUOps, ptr %5, i32 0, i32 6
  %6 = load ptr, ptr %write_elf32_note2, align 8
  %7 = load ptr, ptr %f.addr, align 8
  %8 = load ptr, ptr %cpu.addr, align 8
  %9 = load i32, ptr %cpuid.addr, align 4
  %10 = load ptr, ptr %opaque.addr, align 8
  %call3 = call i32 %6(ptr noundef %7, ptr noundef %8, i32 noundef %9, ptr noundef %10)
  store i32 %call3, ptr %retval, align 4
  br label %return

return:                                           ; preds = %if.end, %if.then
  %11 = load i32, ptr %retval, align 4
  ret i32 %11
}